target datalayout = "e-m:e-p270:32:32-p271:32:32-p272:64:64-i64:64-i128:128-f80:128-n8:16:32:64-S128"
target triple = "x86_64-pc-linux-gnu"

%struct.slurm_conf_t = type { i64, ptr, i16, ptr, ptr, ptr, ptr, ptr, i16, ptr, ptr, ptr, ptr, ptr, ptr, ptr, i16, ptr, ptr, ptr, ptr, i16, ptr, ptr, ptr, i64, ptr, ptr, ptr, ptr, i16, ptr, ptr, i16, i32, ptr, i32, ptr, i32, i32, ptr, ptr, i64, i64, ptr, i16, i16, ptr, i32, i32, ptr, i32, ptr, i32, i16, i16, i16, ptr, i16, i16, ptr, ptr, i32, i16, i16, ptr, i32, i16, ptr, ptr, ptr, ptr, i16, ptr, ptr, ptr, ptr, i32, ptr, ptr, ptr, ptr, i16, i16, ptr, i32, i32, i32, i16, i16, ptr, ptr, i16, ptr, ptr, i32, i32, i32, i32, i32, i64, i32, i32, i16, ptr, ptr, i32, ptr, ptr, ptr, i16, i32, ptr, ptr, i16, ptr, ptr, i32, i16, ptr, ptr, ptr, ptr, i32, i32, i16, i16, i32, ptr, i16, ptr, i32, i32, i32, i32, i32, i32, ptr, i16, ptr, ptr, i32, i16, ptr, i32, i16, i16, ptr, ptr, ptr, i16, ptr, ptr, ptr, ptr, i16, i16, ptr, i16, ptr, i16, ptr, i16, ptr, i16, ptr, ptr, ptr, ptr, i16, ptr, ptr, ptr, i32, ptr, i32, ptr, ptr, i16, ptr, ptr, i32, i16, ptr, ptr, i16, i16, ptr, i16, ptr, ptr, ptr, i32, ptr, i16, i16, ptr, ptr, ptr, ptr, ptr, ptr, ptr, ptr, i16, i32, i16, ptr, ptr, ptr, ptr, i32, ptr, ptr, ptr, i16, ptr, ptr, ptr, i16, ptr, i16, ptr, i16, i16, ptr }
%struct.log_options_t = type { i32, i32, i32, i8, i8, i8, i32 }
%struct.slurmdbd_conf_t = type { ptr, ptr, i16, ptr, ptr, ptr, i16, i16, ptr, i32, ptr, i32, ptr, i16, ptr, i32, i32, i32, i32, i32, i32, i32, ptr, i16, i16, i16 }

@slurmdbd_conf = external global ptr, align 8
@slurm_conf = external global %struct.slurm_conf_t, align 8
@daemonize = internal global i8 1, align 1
@log_opts = internal global { i32, i32, i32, i8, i8, i8, i8, i32 } { i32 3, i32 3, i32 3, i8 1, i8 0, i8 0, i8 0, i32 0 }, align 8
@debug_level = internal global i32 0, align 4
@.str.65 = private unnamed_addr constant [22 x i8] c"chown(%s, %u, %u): %m\00", align 1
@.str.66 = private unnamed_addr constant [19 x i8] c"Log file re-opened\00", align 1

; Function Attrs: nounwind uwtable
define internal void @_update_logging(i1 noundef zeroext %0) #0 {
  %2 = alloca i8, align 1
  %3 = alloca i32, align 4
  %4 = alloca i32, align 4
  %5 = zext i1 %0 to i8
  store i8 %5, ptr %2, align 1
  %6 = load i32, ptr @debug_level, align 4
  %7 = icmp ne i32 %6, 0
  br i1 %7, label %8, label %21

8:                                                ; preds = %1
  %9 = load i32, ptr @debug_level, align 4
  %10 = add nsw i32 3, %9
  %11 = icmp slt i32 %10, 9
  br i1 %11, label %12, label %15

12:                                               ; preds = %8
  %13 = load i32, ptr @debug_level, align 4
  %14 = add nsw i32 3, %13
  br label %16

15:                                               ; preds = %8
  br label %16

16:                                               ; preds = %15, %12
  %17 = phi i32 [ %14, %12 ], [ 9, %15 ]
  %18 = trunc i32 %17 to i16
  %19 = load ptr, ptr @slurmdbd_conf, align 8
  %20 = getelementptr inbounds nuw %struct.slurmdbd_conf_t, ptr %19, i32 0, i32 7
  store i16 %18, ptr %20, align 2
  br label %21

21:                                               ; preds = %16, %1
  %22 = load ptr, ptr @slurmdbd_conf, align 8
  %23 = getelementptr inbounds nuw %struct.slurmdbd_conf_t, ptr %22, i32 0, i32 7
  %24 = load i16, ptr %23, align 2
  %25 = zext i16 %24 to i32
  store i32 %25, ptr getelementptr inbounds nuw (%struct.log_options_t, ptr @log_opts, i32 0, i32 2), align 4
  %26 = load i8, ptr @daemonize, align 1, !range !8, !noundef !9
  %27 = trunc i8 %26 to i1
  br i1 %27, label %33, label %28

28:                                               ; preds = %21
  %29 = load ptr, ptr @slurmdbd_conf, align 8
  %30 = getelementptr inbounds nuw %struct.slurmdbd_conf_t, ptr %29, i32 0, i32 7
  %31 = load i16, ptr %30, align 2
  %32 = zext i16 %31 to i32
  store i32 %32, ptr @log_opts, align 4
  br label %34

33:                                               ; preds = %21
  store i32 0, ptr @log_opts, align 4
  br label %34

34:                                               ; preds = %33, %28
  %35 = load ptr, ptr @slurmdbd_conf, align 8
  %36 = getelementptr inbounds nuw %struct.slurmdbd_conf_t, ptr %35, i32 0, i32 23
  %37 = load i16, ptr %36, align 8
  %38 = zext i16 %37 to i32
  %39 = icmp ne i32 %38, 10
  br i1 %39, label %40, label %45

40:                                               ; preds = %34
  %41 = load ptr, ptr @slurmdbd_conf, align 8
  %42 = getelementptr inbounds nuw %struct.slurmdbd_conf_t, ptr %41, i32 0, i32 23
  %43 = load i16, ptr %42, align 8
  %44 = zext i16 %43 to i32
  store i32 %44, ptr getelementptr inbounds nuw (%struct.log_options_t, ptr @log_opts, i32 0, i32 1), align 4
  br label %68

45:                                               ; preds = %34
  %46 = load i8, ptr @daemonize, align 1, !range !8, !noundef !9
  %47 = trunc i8 %46 to i1
  br i1 %47, label %49, label %48

48:                                               ; preds = %45
  store i32 0, ptr getelementptr inbounds nuw (%struct.log_options_t, ptr @log_opts, i32 0, i32 1), align 4
  br label %67

49:                                               ; preds = %45
  %50 = load ptr, ptr @slurmdbd_conf, align 8
  %51 = getelementptr inbounds nuw %struct.slurmdbd_conf_t, ptr %50, i32 0, i32 7
  %52 = load i16, ptr %51, align 2
  %53 = zext i16 %52 to i32
  %54 = icmp sgt i32 %53, 0
  br i1 %54, label %55, label %65

55:                                               ; preds = %49
  %56 = load ptr, ptr @slurmdbd_conf, align 8
  %57 = getelementptr inbounds nuw %struct.slurmdbd_conf_t, ptr %56, i32 0, i32 10
  %58 = load ptr, ptr %57, align 8
  %59 = icmp ne ptr %58, null
  br i1 %59, label %65, label %60

60:                                               ; preds = %55
  %61 = load ptr, ptr @slurmdbd_conf, align 8
  %62 = getelementptr inbounds nuw %struct.slurmdbd_conf_t, ptr %61, i32 0, i32 7
  %63 = load i16, ptr %62, align 2
  %64 = zext i16 %63 to i32
  store i32 %64, ptr getelementptr inbounds nuw (%struct.log_options_t, ptr @log_opts, i32 0, i32 1), align 4
  br label %66

65:                                               ; preds = %55, %49
  store i32 1, ptr getelementptr inbounds nuw (%struct.log_options_t, ptr @log_opts, i32 0, i32 1), align 4
  br label %66

66:                                               ; preds = %65, %60
  br label %67

67:                                               ; preds = %66, %48
  br label %68

68:                                               ; preds = %67, %40
  %69 = load ptr, ptr @slurmdbd_conf, align 8
  %70 = getelementptr inbounds nuw %struct.slurmdbd_conf_t, ptr %69, i32 0, i32 10
  %71 = load ptr, ptr %70, align 8
  %72 = call i32 @log_alter(ptr noundef byval(%struct.log_options_t) align 8 @log_opts, i32 noundef 24, ptr noundef %71)
  %73 = load i16, ptr getelementptr inbounds nuw (%struct.slurm_conf_t, ptr @slurm_conf, i32 0, i32 92), align 8
  %74 = zext i16 %73 to i32
  call void @log_set_timefmt(i32 noundef %74)
  %75 = load i8, ptr %2, align 1, !range !8, !noundef !9
  %76 = trunc i8 %75 to i1
  br i1 %76, label %77, label %101

77:                                               ; preds = %68
  %78 = load ptr, ptr @slurmdbd_conf, align 8
  %79 = getelementptr inbounds nuw %struct.slurmdbd_conf_t, ptr %78, i32 0, i32 10
  %80 = load ptr, ptr %79, align 8
  %81 = icmp ne ptr %80, null
  br i1 %81, label %82, label %101

82:                                               ; preds = %77
  call void @llvm.lifetime.start.p0(i64 4, ptr %3) #10
  call void @llvm.lifetime.start.p0(i64 4, ptr %4) #10
  %83 = load i32, ptr getelementptr inbounds nuw (%struct.slurm_conf_t, ptr @slurm_conf, i32 0, i32 173), align 8
  %84 = call i32 @gid_from_uid(i32 noundef %83)
  store i32 %84, ptr %4, align 4
  %85 = load ptr, ptr @slurmdbd_conf, align 8
  %86 = getelementptr inbounds nuw %struct.slurmdbd_conf_t, ptr %85, i32 0, i32 10
  %87 = load ptr, ptr %86, align 8
  %88 = load i32, ptr getelementptr inbounds nuw (%struct.slurm_conf_t, ptr @slurm_conf, i32 0, i32 173), align 8
  %89 = load i32, ptr %4, align 4
  %90 = call i32 @chown(ptr noundef %87, i32 noundef %88, i32 noundef %89) #10
  store i32 %90, ptr %3, align 4
  %91 = load i32, ptr %3, align 4
  %92 = icmp ne i32 %91, 0
  br i1 %92, label %93, label %100

93:                                               ; preds = %82
  %94 = load ptr, ptr @slurmdbd_conf, align 8
  %95 = getelementptr inbounds nuw %struct.slurmdbd_conf_t, ptr %94, i32 0, i32 10
  %96 = load ptr, ptr %95, align 8
  %97 = load i32, ptr getelementptr inbounds nuw (%struct.slurm_conf_t, ptr @slurm_conf, i32 0, i32 173), align 8
  %98 = load i32, ptr %4, align 4
  %99 = call i32 (ptr, ...) @error(ptr noundef @.str.65, ptr noundef %96, i32 noundef %97, i32 noundef %98)
  br label %100

100:                                              ; preds = %93, %82
  call void @llvm.lifetime.end.p0(i64 4, ptr %4) #10
  call void @llvm.lifetime.end.p0(i64 4, ptr %3) #10
  br label %101

101:                                              ; preds = %100, %77, %68
  br label %102

102:                                              ; preds = %101
  br label %103

103:                                              ; preds = %102
  %104 = call i32 @get_log_level()
  %105 = icmp sge i32 %104, 5
  br i1 %105, label %106, label %107

106:                                              ; preds = %103
  call void (i32, ptr, ...) @log_var(i32 noundef 5, ptr noundef @.str.66)
  br label %107

107:                                              ; preds = %106, %103
  br label %108

108:                                              ; preds = %107
  br label %109

109:                                              ; preds = %108
  ret void
}