; Function Attrs: nounwind uwtable
define internal fastcc void @_update_logging(i1 noundef zeroext %0) unnamed_addr #0 {
  %2 = load i32, ptr @debug_level, align 4
  %.not = icmp eq i32 %2, 0
  %.pre = load ptr, ptr @slurmdbd_conf, align 8
  br i1 %.not, label %._crit_edge, label %3

._crit_edge:                                      ; preds = %1
  %.phi.trans.insert = getelementptr inbounds nuw i8, ptr %.pre, i64 50
  %.pre15 = load i16, ptr %.phi.trans.insert, align 2
  br label %8

3:                                                ; preds = %1
  %4 = tail call i32 @llvm.smin.i32(i32 %2, i32 6)
  %5 = trunc i32 %4 to i16
  %6 = add i16 %5, 3
  %7 = getelementptr inbounds nuw i8, ptr %.pre, i64 50
  store i16 %6, ptr %7, align 2
  br label %8

8:                                                ; preds = %._crit_edge, %3
  %9 = phi i16 [ %.pre15, %._crit_edge ], [ %6, %3 ]
  %10 = zext i16 %9 to i32
  store i32 %10, ptr getelementptr inbounds nuw (i8, ptr @log_opts, i64 8), align 8
  %.b6 = load i1, ptr @daemonize, align 1
  %11 = getelementptr inbounds nuw i8, ptr %.pre, i64 152
  br i1 %.b6, label %12, label %.thread

12:                                               ; preds = %8
  store i32 %10, ptr @log_opts, align 8
  %13 = load i16, ptr %11, align 8
  %.not7 = icmp eq i16 %13, 10
  br i1 %.not7, label %22, label %15

.thread:                                          ; preds = %8
  store i32 0, ptr @log_opts, align 8
  %14 = load i16, ptr %11, align 8
  %.not713 = icmp eq i16 %14, 10
  br i1 %.not713, label %.thread14, label %15

15:                                               ; preds = %.thread, %12
  %16 = phi i16 [ %14, %.thread ], [ %13, %12 ]
  %17 = zext i16 %16 to i32
  br label %22

.thread14:                                        ; preds = %.thread
  %.not8 = icmp eq i16 %9, 0
  br i1 %.not8, label %21, label %18

18:                                               ; preds = %.thread14
  %19 = getelementptr inbounds nuw i8, ptr %.pre, i64 72
  %20 = load ptr, ptr %19, align 8
  %.not9 = icmp eq ptr %20, null
  br i1 %.not9, label %22, label %21

21:                                               ; preds = %18, %.thread14
  br label %22

22:                                               ; preds = %18, %12, %21, %15
  %.sink = phi i32 [ 1, %21 ], [ %17, %15 ], [ 0, %12 ], [ %10, %18 ]
  store i32 %.sink, ptr getelementptr inbounds nuw (i8, ptr @log_opts, i64 4), align 4
  %23 = getelementptr inbounds nuw i8, ptr %.pre, i64 72
  %24 = load ptr, ptr %23, align 8
  %25 = tail call i32 @log_alter(ptr noundef nonnull byval(%struct.log_options_t) align 8 @log_opts, i32 noundef 24, ptr noundef %24) #14
  %26 = load i16, ptr getelementptr inbounds nuw (i8, ptr @slurm_conf, i64 624), align 8
  %27 = zext i16 %26 to i32
  tail call void @log_set_timefmt(i32 noundef %27) #14
  br i1 %0, label %28, label %46

28:                                               ; preds = %22
  %29 = load ptr, ptr @slurmdbd_conf, align 8
  %30 = getelementptr inbounds nuw i8, ptr %29, i64 72
  %31 = load ptr, ptr %30, align 8
  %.not10 = icmp eq ptr %31, null
  br i1 %.not10, label %46, label %32

32:                                               ; preds = %28
  %33 = load i32, ptr getelementptr inbounds nuw (i8, ptr @slurm_conf, i64 1152), align 8
  %34 = tail call i32 @gid_from_uid(i32 noundef %33) #14
  %35 = load ptr, ptr @slurmdbd_conf, align 8
  %36 = getelementptr inbounds nuw i8, ptr %35, i64 72
  %37 = load ptr, ptr %36, align 8
  %38 = load i32, ptr getelementptr inbounds nuw (i8, ptr @slurm_conf, i64 1152), align 8
  %39 = tail call i32 @chown(ptr noundef %37, i32 noundef %38, i32 noundef %34) #14
  %.not11 = icmp eq i32 %39, 0
  br i1 %.not11, label %46, label %40

40:                                               ; preds = %32
  %41 = load ptr, ptr @slurmdbd_conf, align 8
  %42 = getelementptr inbounds nuw i8, ptr %41, i64 72
  %43 = load ptr, ptr %42, align 8
  %44 = load i32, ptr getelementptr inbounds nuw (i8, ptr @slurm_conf, i64 1152), align 8
  %45 = tail call i32 (ptr, ...) @error(ptr noundef nonnull @.str.65, ptr noundef %43, i32 noundef %44, i32 noundef %34) #14
  br label %46

46:                                               ; preds = %32, %40, %28, %22
  %47 = tail call i32 @get_log_level() #14
  %48 = icmp sgt i32 %47, 4
  br i1 %48, label %49, label %50

49:                                               ; preds = %46
  tail call void (i32, ptr, ...) @log_var(i32 noundef 5, ptr noundef nonnull @.str.66) #14
  br label %50

50:                                               ; preds = %49, %46
  ret void
}